; Function Attrs: mustprogress nofree norecurse nosync nounwind willreturn memory(read, inaccessiblemem: none) uwtable
define noundef zeroext i1 @_ZNK2mu14ParserCallback7IsValidEv(ptr noundef nonnull readonly align 8 captures(none) dereferenceable(32) %0) local_unnamed_addr #10 align 2 {
  %2 = getelementptr inbounds nuw i8, ptr %0, i64 8
  %3 = load i32, ptr %2, align 8, !tbaa !14
  %4 = and i32 %3, 8192
  %.not.i = icmp eq i32 %4, 0
  %5 = load ptr, ptr %0, align 8
  %.0.in.i = select i1 %.not.i, ptr %0, ptr %5
  %.0.i = load ptr, ptr %.0.in.i, align 8, !tbaa !24
  %.not = icmp eq ptr %.0.i, null
  %brmerge = or i1 %.not.i, %.not
  %not..not = xor i1 %.not, true
  br i1 %brmerge, label %9, label %_ZNK2mu14ParserCallback11GetUserDataEv.exit

_ZNK2mu14ParserCallback11GetUserDataEv.exit:      ; preds = %1
  %6 = getelementptr inbounds nuw i8, ptr %5, i64 8
  %7 = load ptr, ptr %6, align 8, !tbaa !22
  %8 = icmp ne ptr %7, null
  br label %9

9:                                                ; preds = %1, %_ZNK2mu14ParserCallback11GetUserDataEv.exit
  %10 = phi i1 [ %not..not, %1 ], [ %8, %_ZNK2mu14ParserCallback11GetUserDataEv.exit ]
  ret i1 %10
}